; Function Attrs: mustprogress uwtable
define hidden noundef ptr @_ZNK7datalog14table_relation5cloneEv(ptr noundef nonnull readonly align 8 captures(none) dereferenceable(40) %0) unnamed_addr #3 align 2 {
  %2 = getelementptr inbounds nuw i8, ptr %0, i64 32
  %3 = load ptr, ptr %2, align 8, !tbaa !47
  %4 = load ptr, ptr %3, align 8, !tbaa !32
  %5 = getelementptr inbounds nuw i8, ptr %4, i64 72
  %6 = load ptr, ptr %5, align 8
  %7 = tail call noundef ptr %6(ptr noundef nonnull align 8 dereferenceable(36) %3)
  %8 = getelementptr inbounds nuw i8, ptr %0, i64 8
  %9 = load ptr, ptr %8, align 8, !tbaa !54
  %10 = getelementptr inbounds nuw i8, ptr %0, i64 16
  %11 = tail call noundef ptr @_ZN7datalog21table_relation_plugin13mk_from_tableERKNS_18relation_signatureEPNS_10table_baseE(ptr noundef nonnull align 8 dereferenceable(48) %9, ptr noundef nonnull align 8 dereferenceable(8) %10, ptr noundef %7)
  ret ptr %11
}